target datalayout = "e-m:e-p270:32:32-p271:32:32-p272:64:64-i64:64-i128:128-f80:128-n8:16:32:64-S128"
target triple = "x86_64-pc-linux-gnu"

; Function Attrs: mustprogress nounwind uwtable
define noundef i64 @_ZN32pxrInternal_v0_24__pxrReserved__17TfFastCompression15GetMaxInputSizeEv() #0 align 2 {
  ret i64 268469010432
}

; Function Attrs: mustprogress uwtable
define noundef i64 @_ZN32pxrInternal_v0_24__pxrReserved__17TfFastCompression23GetCompressedBufferSizeEm(i64 noundef %0) #1 align 2 {
  %2 = alloca i64, align 8
  %3 = alloca i64, align 8
  %4 = alloca i64, align 8
  %5 = alloca i64, align 8
  %6 = alloca i64, align 8
  store i64 %0, ptr %3, align 8
  %7 = load i64, ptr %3, align 8
  %8 = call noundef i64 @_ZN32pxrInternal_v0_24__pxrReserved__17TfFastCompression15GetMaxInputSizeEv()
  %9 = icmp ugt i64 %7, %8
  br i1 %9, label %10, label %11

10:                                               ; preds = %1
  store i64 0, ptr %2, align 8
  br label %43

11:                                               ; preds = %1
  %12 = load i64, ptr %3, align 8
  %13 = icmp ule i64 %12, 2113929216
  br i1 %13, label %14, label %20

14:                                               ; preds = %11
  %15 = load i64, ptr %3, align 8
  %16 = trunc i64 %15 to i32
  %17 = call noundef i32 @_ZN32pxrInternal_v0_24__pxrReserved__7pxr_lz417LZ4_compressBoundEi(i32 noundef %16)
  %18 = add nsw i32 %17, 1
  %19 = sext i32 %18 to i64
  store i64 %19, ptr %2, align 8
  br label %43

20:                                               ; preds = %11
  %21 = load i64, ptr %3, align 8
  %22 = udiv i64 %21, 2113929216
  store i64 %22, ptr %4, align 8
  %23 = load i64, ptr %3, align 8
  %24 = urem i64 %23, 2113929216
  store i64 %24, ptr %5, align 8
  %25 = load i64, ptr %4, align 8
  %26 = call noundef i32 @_ZN32pxrInternal_v0_24__pxrReserved__7pxr_lz417LZ4_compressBoundEi(i32 noundef 2113929216)
  %27 = sext i32 %26 to i64
  %28 = add i64 %27, 4
  %29 = mul i64 %25, %28
  %30 = add i64 1, %29
  store i64 %30, ptr %6, align 8
  %31 = load i64, ptr %5, align 8
  %32 = icmp ne i64 %31, 0
  br i1 %32, label %33, label %41

33:                                               ; preds = %20
  %34 = load i64, ptr %5, align 8
  %35 = trunc i64 %34 to i32
  %36 = call noundef i32 @_ZN32pxrInternal_v0_24__pxrReserved__7pxr_lz417LZ4_compressBoundEi(i32 noundef %35)
  %37 = sext i32 %36 to i64
  %38 = add i64 %37, 4
  %39 = load i64, ptr %6, align 8
  %40 = add i64 %39, %38
  store i64 %40, ptr %6, align 8
  br label %41

41:                                               ; preds = %33, %20
  %42 = load i64, ptr %6, align 8
  store i64 %42, ptr %2, align 8
  br label %43

43:                                               ; preds = %41, %14, %10
  %44 = load i64, ptr %2, align 8
  ret i64 %44
}