; Function Attrs: mustprogress uwtable
define noundef range(i64 -274877906431, 274877907330) i64 @_ZN32pxrInternal_v0_24__pxrReserved__17TfFastCompression23GetCompressedBufferSizeEm(i64 noundef %0) local_unnamed_addr #1 align 2 {
  %2 = icmp ugt i64 %0, 268469010432
  br i1 %2, label %24, label %3

3:                                                ; preds = %1
  %4 = icmp ult i64 %0, 2113929217
  br i1 %4, label %5, label %10

5:                                                ; preds = %3
  %6 = trunc nuw nsw i64 %0 to i32
  %7 = tail call noundef i32 @_ZN32pxrInternal_v0_24__pxrReserved__7pxr_lz417LZ4_compressBoundEi(i32 noundef %6)
  %8 = add nsw i32 %7, 1
  %9 = sext i32 %8 to i64
  br label %24

10:                                               ; preds = %3
  %11 = udiv i64 %0, 2113929216
  %12 = urem i64 %0, 2113929216
  %13 = tail call noundef i32 @_ZN32pxrInternal_v0_24__pxrReserved__7pxr_lz417LZ4_compressBoundEi(i32 noundef 2113929216)
  %14 = sext i32 %13 to i64
  %15 = add nsw i64 %14, 4
  %16 = mul nsw i64 %15, %11
  %17 = add nsw i64 %16, 1
  %.not = icmp eq i64 %12, 0
  br i1 %.not, label %24, label %18

18:                                               ; preds = %10
  %19 = trunc nuw nsw i64 %12 to i32
  %20 = tail call noundef i32 @_ZN32pxrInternal_v0_24__pxrReserved__7pxr_lz417LZ4_compressBoundEi(i32 noundef %19)
  %21 = sext i32 %20 to i64
  %22 = add nsw i64 %16, 5
  %23 = add nsw i64 %22, %21
  br label %24

24:                                               ; preds = %10, %18, %1, %5
  %.011 = phi i64 [ %9, %5 ], [ 0, %1 ], [ %23, %18 ], [ %17, %10 ]
  ret i64 %.011
}